; Function Attrs: mustprogress uwtable
define void @_ZN5Ipopt12OrigIpoptNLP15uninitialized_hEv(ptr dead_on_unwind noalias nocapture writable writeonly sret(%"class.Ipopt::SmartPtr.57") align 8 %0, ptr nocapture noundef nonnull readonly align 8 dereferenceable(544) %1) unnamed_addr #4 align 2 {
  %3 = getelementptr inbounds i8, ptr %1, i64 144
  %4 = load ptr, ptr %3, align 8
  %5 = load ptr, ptr %4, align 8
  %6 = getelementptr inbounds i8, ptr %5, i64 24
  %7 = load ptr, ptr %6, align 8
  %8 = tail call noundef ptr %7(ptr noundef nonnull align 8 dereferenceable(20) %4)
  %.not.i.i = icmp eq ptr %8, null
  br i1 %.not.i.i, label %_ZN5Ipopt8SmartPtrIKNS_9SymMatrixEEC2EPS2_.exit, label %9

9:                                                ; preds = %2
  %10 = getelementptr inbounds i8, ptr %8, i64 8
  %11 = load i32, ptr %10, align 8
  %12 = add nsw i32 %11, 1
  store i32 %12, ptr %10, align 8
  br label %_ZN5Ipopt8SmartPtrIKNS_9SymMatrixEEC2EPS2_.exit

_ZN5Ipopt8SmartPtrIKNS_9SymMatrixEEC2EPS2_.exit:  ; preds = %9, %2
  store ptr %8, ptr %0, align 8
  ret void
}